; Function Attrs: null_pointer_is_valid sspstrong uwtable
define internal i32 @dissect_ccp_gfza_opt(ptr noundef %0, ptr noundef %1, ptr noundef %2, ptr readnone captures(none) %3) #1 {
  %5 = alloca ptr, align 8
  %6 = alloca ptr, align 8
  call void @llvm.lifetime.start.p0(i64 8, ptr nonnull %5) #8
  call void @llvm.lifetime.start.p0(i64 8, ptr nonnull %6) #8
  %7 = tail call i32 @tvb_reported_length(ptr noundef %0)
  %8 = load i32, ptr @proto_ccp_option_gfza, align 4
  %9 = load i32, ptr @ett_ccp_gfza_opt, align 4
  %10 = call fastcc zeroext i1 @dissect_ccp_var_opt(ptr noundef %0, ptr noundef %1, ptr noundef %2, i32 noundef %8, i32 noundef %9, i32 noundef 3, ptr noundef nonnull %5, ptr noundef nonnull %6)
  br i1 %10, label %11, label %20

11:                                               ; preds = %4
  %12 = load ptr, ptr %5, align 8
  %13 = load i32, ptr @hf_ccp_opt_history, align 4
  %14 = tail call ptr @proto_tree_add_item(ptr noundef %12, i32 noundef %13, ptr noundef %0, i32 noundef 2, i32 noundef 1, i32 noundef 0)
  %15 = icmp sgt i32 %7, 3
  br i1 %15, label %16, label %20

16:                                               ; preds = %11
  %17 = load i32, ptr @hf_ccp_opt_version, align 4
  %18 = add nsw i32 %7, -3
  %19 = tail call ptr @proto_tree_add_item(ptr noundef %12, i32 noundef %17, ptr noundef %0, i32 noundef 3, i32 noundef %18, i32 noundef 0)
  br label %20

20:                                               ; preds = %11, %16, %4
  %21 = tail call i32 @tvb_captured_length(ptr noundef %0)
  call void @llvm.lifetime.end.p0(i64 8, ptr nonnull %6) #8
  call void @llvm.lifetime.end.p0(i64 8, ptr nonnull %5) #8
  ret i32 %21
}